target datalayout = "e-m:e-p270:32:32-p271:32:32-p272:64:64-i64:64-f80:128-n8:16:32:64-S128"
target triple = "x86_64-pc-linux-gnu"

@.str = private unnamed_addr constant [6 x i8] c"%d %d\00", align 1
@.str.1 = private unnamed_addr constant [3 x i8] c"%d\00", align 1
@.str.2 = private unnamed_addr constant [4 x i8] c" %d\00", align 1

; Function Attrs: noinline nounwind uwtable
define dso_local i32 @input(i32* %0, i32 %1) #0 {
  %3 = alloca i32, align 4
  %4 = alloca i32*, align 8
  %5 = alloca i32, align 4
  store i32* %0, i32** %4, align 8
  store i32 %1, i32* %5, align 4
  %6 = load i32, i32* %3, align 4
  ret i32 %6
}

; Function Attrs: noinline nounwind uwtable
define dso_local i32 @sort(i32* %0, i32 %1) #0 {
  %3 = alloca i32, align 4
  %4 = alloca i32*, align 8
  %5 = alloca i32, align 4
  store i32* %0, i32** %4, align 8
  store i32 %1, i32* %5, align 4
  %6 = load i32, i32* %3, align 4
  ret i32 %6
}

; Function Attrs: noinline nounwind uwtable
define dso_local i32 @main() #0 {
  %1 = alloca i32, align 4
  %2 = alloca i32, align 4
  %3 = alloca i32, align 4
  %4 = alloca i32*, align 8
  %5 = alloca i32*, align 8
  %6 = alloca i32*, align 8
  %7 = alloca i32, align 4
  %8 = alloca i32, align 4
  %9 = alloca i32, align 4
  %10 = alloca i32, align 4
  %11 = alloca i32, align 4
  %12 = alloca i32, align 4
  %13 = alloca i32, align 4
  %14 = alloca i32, align 4
  %15 = alloca i32, align 4
  %16 = alloca i32, align 4
  %17 = alloca i32, align 4
  store i32 0, i32* %1, align 4
  %18 = call i32 (i8*, ...) @__isoc99_scanf(i8* getelementptr inbounds ([6 x i8], [6 x i8]* @.str, i64 0, i64 0), i32* %2, i32* %3)
  %19 = load i32, i32* %2, align 4
  %20 = sext i32 %19 to i64
  %21 = mul i64 %20, 4
  %22 = call noalias i8* @malloc(i64 %21) #3
  %23 = bitcast i8* %22 to i32*
  store i32* %23, i32** %4, align 8
  %24 = load i32, i32* %3, align 4
  %25 = sext i32 %24 to i64
  %26 = mul i64 %25, 4
  %27 = call noalias i8* @malloc(i64 %26) #3
  %28 = bitcast i8* %27 to i32*
  store i32* %28, i32** %5, align 8
  %29 = load i32, i32* %2, align 4
  %30 = load i32, i32* %3, align 4
  %31 = add nsw i32 %29, %30
  %32 = sext i32 %31 to i64
  %33 = mul i64 %32, 4
  %34 = call noalias i8* @malloc(i64 %33) #3
  %35 = bitcast i8* %34 to i32*
  store i32* %35, i32** %6, align 8
  store i32 0, i32* %7, align 4
  br label %36

36:                                               ; preds = %46, %0
  %37 = load i32, i32* %7, align 4
  %38 = load i32, i32* %2, align 4
  %39 = icmp slt i32 %37, %38
  br i1 %39, label %40, label %49

40:                                               ; preds = %36
  %41 = load i32*, i32** %4, align 8
  %42 = load i32, i32* %7, align 4
  %43 = sext i32 %42 to i64
  %44 = getelementptr inbounds i32, i32* %41, i64 %43
  %45 = call i32 (i8*, ...) @__isoc99_scanf(i8* getelementptr inbounds ([3 x i8], [3 x i8]* @.str.1, i64 0, i64 0), i32* %44)
  br label %46

46:                                               ; preds = %40
  %47 = load i32, i32* %7, align 4
  %48 = add nsw i32 %47, 1
  store i32 %48, i32* %7, align 4
  br label %36

49:                                               ; preds = %36
  store i32 0, i32* %8, align 4
  br label %50

50:                                               ; preds = %60, %49
  %51 = load i32, i32* %8, align 4
  %52 = load i32, i32* %3, align 4
  %53 = icmp slt i32 %51, %52
  br i1 %53, label %54, label %63

54:                                               ; preds = %50
  %55 = load i32*, i32** %5, align 8
  %56 = load i32, i32* %8, align 4
  %57 = sext i32 %56 to i64
  %58 = getelementptr inbounds i32, i32* %55, i64 %57
  %59 = call i32 (i8*, ...) @__isoc99_scanf(i8* getelementptr inbounds ([3 x i8], [3 x i8]* @.str.1, i64 0, i64 0), i32* %58)
  br label %60

60:                                               ; preds = %54
  %61 = load i32, i32* %8, align 4
  %62 = add nsw i32 %61, 1
  store i32 %62, i32* %8, align 4
  br label %50

63:                                               ; preds = %50
  store i32 1, i32* %9, align 4
  br label %64

64:                                               ; preds = %115, %63
  %65 = load i32, i32* %9, align 4
  %66 = load i32, i32* %2, align 4
  %67 = icmp slt i32 %65, %66
  br i1 %67, label %68, label %118

68:                                               ; preds = %64
  store i32 0, i32* %10, align 4
  br label %69

69:                                               ; preds = %111, %68
  %70 = load i32, i32* %10, align 4
  %71 = load i32, i32* %2, align 4
  %72 = load i32, i32* %9, align 4
  %73 = sub nsw i32 %71, %72
  %74 = icmp slt i32 %70, %73
  br i1 %74, label %75, label %114

75:                                               ; preds = %69
  %76 = load i32*, i32** %4, align 8
  %77 = load i32, i32* %10, align 4
  %78 = sext i32 %77 to i64
  %79 = getelementptr inbounds i32, i32* %76, i64 %78
  %80 = load i32, i32* %79, align 4
  %81 = load i32*, i32** %4, align 8
  %82 = load i32, i32* %10, align 4
  %83 = add nsw i32 %82, 1
  %84 = sext i32 %83 to i64
  %85 = getelementptr inbounds i32, i32* %81, i64 %84
  %86 = load i32, i32* %85, align 4
  %87 = icmp sgt i32 %80, %86
  br i1 %87, label %88, label %110

88:                                               ; preds = %75
  %89 = load i32*, i32** %4, align 8
  %90 = load i32, i32* %10, align 4
  %91 = sext i32 %90 to i64
  %92 = getelementptr inbounds i32, i32* %89, i64 %91
  %93 = load i32, i32* %92, align 4
  store i32 %93, i32* %11, align 4
  %94 = load i32*, i32** %4, align 8
  %95 = load i32, i32* %10, align 4
  %96 = add nsw i32 %95, 1
  %97 = sext i32 %96 to i64
  %98 = getelementptr inbounds i32, i32* %94, i64 %97
  %99 = load i32, i32* %98, align 4
  %100 = load i32*, i32** %4, align 8
  %101 = load i32, i32* %10, align 4
  %102 = sext i32 %101 to i64
  %103 = getelementptr inbounds i32, i32* %100, i64 %102
  store i32 %99, i32* %103, align 4
  %104 = load i32, i32* %11, align 4
  %105 = load i32*, i32** %4, align 8
  %106 = load i32, i32* %10, align 4
  %107 = add nsw i32 %106, 1
  %108 = sext i32 %107 to i64
  %109 = getelementptr inbounds i32, i32* %105, i64 %108
  store i32 %104, i32* %109, align 4
  br label %110

110:                                              ; preds = %88, %75
  br label %111

111:                                              ; preds = %110
  %112 = load i32, i32* %10, align 4
  %113 = add nsw i32 %112, 1
  store i32 %113, i32* %10, align 4
  br label %69

114:                                              ; preds = %69
  br label %115

115:                                              ; preds = %114
  %116 = load i32, i32* %9, align 4
  %117 = add nsw i32 %116, 1
  store i32 %117, i32* %9, align 4
  br label %64

118:                                              ; preds = %64
  store i32 1, i32* %12, align 4
  br label %119

119:                                              ; preds = %170, %118
  %120 = load i32, i32* %12, align 4
  %121 = load i32, i32* %3, align 4
  %122 = icmp slt i32 %120, %121
  br i1 %122, label %123, label %173

123:                                              ; preds = %119
  store i32 0, i32* %13, align 4
  br label %124

124:                                              ; preds = %166, %123
  %125 = load i32, i32* %13, align 4
  %126 = load i32, i32* %3, align 4
  %127 = load i32, i32* %12, align 4
  %128 = sub nsw i32 %126, %127
  %129 = icmp slt i32 %125, %128
  br i1 %129, label %130, label %169

130:                                              ; preds = %124
  %131 = load i32*, i32** %5, align 8
  %132 = load i32, i32* %13, align 4
  %133 = sext i32 %132 to i64
  %134 = getelementptr inbounds i32, i32* %131, i64 %133
  %135 = load i32, i32* %134, align 4
  %136 = load i32*, i32** %5, align 8
  %137 = load i32, i32* %13, align 4
  %138 = add nsw i32 %137, 1
  %139 = sext i32 %138 to i64
  %140 = getelementptr inbounds i32, i32* %136, i64 %139
  %141 = load i32, i32* %140, align 4
  %142 = icmp sgt i32 %135, %141
  br i1 %142, label %143, label %165

143:                                              ; preds = %130
  %144 = load i32*, i32** %5, align 8
  %145 = load i32, i32* %13, align 4
  %146 = sext i32 %145 to i64
  %147 = getelementptr inbounds i32, i32* %144, i64 %146
  %148 = load i32, i32* %147, align 4
  store i32 %148, i32* %14, align 4
  %149 = load i32*, i32** %5, align 8
  %150 = load i32, i32* %13, align 4
  %151 = add nsw i32 %150, 1
  %152 = sext i32 %151 to i64
  %153 = getelementptr inbounds i32, i32* %149, i64 %152
  %154 = load i32, i32* %153, align 4
  %155 = load i32*, i32** %5, align 8
  %156 = load i32, i32* %13, align 4
  %157 = sext i32 %156 to i64
  %158 = getelementptr inbounds i32, i32* %155, i64 %157
  store i32 %154, i32* %158, align 4
  %159 = load i32, i32* %14, align 4
  %160 = load i32*, i32** %5, align 8
  %161 = load i32, i32* %13, align 4
  %162 = add nsw i32 %161, 1
  %163 = sext i32 %162 to i64
  %164 = getelementptr inbounds i32, i32* %160, i64 %163
  store i32 %159, i32* %164, align 4
  br label %165

165:                                              ; preds = %143, %130
  br label %166

166:                                              ; preds = %165
  %167 = load i32, i32* %13, align 4
  %168 = add nsw i32 %167, 1
  store i32 %168, i32* %13, align 4
  br label %124

169:                                              ; preds = %124
  br label %170

170:                                              ; preds = %169
  %171 = load i32, i32* %12, align 4
  %172 = add nsw i32 %171, 1
  store i32 %172, i32* %12, align 4
  br label %119

173:                                              ; preds = %119
  store i32 0, i32* %15, align 4
  br label %174

174:                                              ; preds = %188, %173
  %175 = load i32, i32* %15, align 4
  %176 = load i32, i32* %2, align 4
  %177 = icmp slt i32 %175, %176
  br i1 %177, label %178, label %191

178:                                              ; preds = %174
  %179 = load i32*, i32** %4, align 8
  %180 = load i32, i32* %15, align 4
  %181 = sext i32 %180 to i64
  %182 = getelementptr inbounds i32, i32* %179, i64 %181
  %183 = load i32, i32* %182, align 4
  %184 = load i32*, i32** %6, align 8
  %185 = load i32, i32* %15, align 4
  %186 = sext i32 %185 to i64
  %187 = getelementptr inbounds i32, i32* %184, i64 %186
  store i32 %183, i32* %187, align 4
  br label %188

188:                                              ; preds = %178
  %189 = load i32, i32* %15, align 4
  %190 = add nsw i32 %189, 1
  store i32 %190, i32* %15, align 4
  br label %174

191:                                              ; preds = %174
  store i32 0, i32* %16, align 4
  br label %192

192:                                              ; preds = %208, %191
  %193 = load i32, i32* %16, align 4
  %194 = load i32, i32* %3, align 4
  %195 = icmp slt i32 %193, %194
  br i1 %195, label %196, label %211

196:                                              ; preds = %192
  %197 = load i32*, i32** %5, align 8
  %198 = load i32, i32* %16, align 4
  %199 = sext i32 %198 to i64
  %200 = getelementptr inbounds i32, i32* %197, i64 %199
  %201 = load i32, i32* %200, align 4
  %202 = load i32*, i32** %6, align 8
  %203 = load i32, i32* %2, align 4
  %204 = load i32, i32* %16, align 4
  %205 = add nsw i32 %203, %204
  %206 = sext i32 %205 to i64
  %207 = getelementptr inbounds i32, i32* %202, i64 %206
  store i32 %201, i32* %207, align 4
  br label %208

208:                                              ; preds = %196
  %209 = load i32, i32* %16, align 4
  %210 = add nsw i32 %209, 1
  store i32 %210, i32* %16, align 4
  br label %192

211:                                              ; preds = %192
  store i32 0, i32* %17, align 4
  br label %212

212:                                              ; preds = %236, %211
  %213 = load i32, i32* %17, align 4
  %214 = load i32, i32* %2, align 4
  %215 = load i32, i32* %3, align 4
  %216 = add nsw i32 %214, %215
  %217 = icmp slt i32 %213, %216
  br i1 %217, label %218, label %239

218:                                              ; preds = %212
  %219 = load i32, i32* %17, align 4
  %220 = icmp eq i32 %219, 0
  br i1 %220, label %221, label %228

221:                                              ; preds = %218
  %222 = load i32*, i32** %6, align 8
  %223 = load i32, i32* %17, align 4
  %224 = sext i32 %223 to i64
  %225 = getelementptr inbounds i32, i32* %222, i64 %224
  %226 = load i32, i32* %225, align 4
  %227 = call i32 (i8*, ...) @printf(i8* getelementptr inbounds ([3 x i8], [3 x i8]* @.str.1, i64 0, i64 0), i32 %226)
  br label %235

228:                                              ; preds = %218
  %229 = load i32*, i32** %6, align 8
  %230 = load i32, i32* %17, align 4
  %231 = sext i32 %230 to i64
  %232 = getelementptr inbounds i32, i32* %229, i64 %231
  %233 = load i32, i32* %232, align 4
  %234 = call i32 (i8*, ...) @printf(i8* getelementptr inbounds ([4 x i8], [4 x i8]* @.str.2, i64 0, i64 0), i32 %233)
  br label %235

235:                                              ; preds = %228, %221
  br label %236

236:                                              ; preds = %235
  %237 = load i32, i32* %17, align 4
  %238 = add nsw i32 %237, 1
  store i32 %238, i32* %17, align 4
  br label %212

239:                                              ; preds = %212
  %240 = load i32, i32* %1, align 4
  ret i32 %240
}